target datalayout = "e-m:e-p270:32:32-p271:32:32-p272:64:64-i64:64-i128:128-f80:128-n8:16:32:64-S128"
target triple = "x86_64-pc-linux-gnu"

%struct.lv_style_t = type { ptr, i32, i8 }

@style_text_muted = internal global %struct.lv_style_t zeroinitializer, align 8
@style_title = internal global %struct.lv_style_t zeroinitializer, align 8
@style_icon = internal global %struct.lv_style_t zeroinitializer, align 8
@style_bullet = internal global %struct.lv_style_t zeroinitializer, align 8

; Function Attrs: nounwind uwtable
define internal void @tabview_delete_event_cb(ptr noundef %0) #0 {
  %2 = alloca ptr, align 8
  %3 = alloca i32, align 4
  store ptr %0, ptr %2, align 8, !tbaa !7
  call void @llvm.lifetime.start.p0(i64 4, ptr %3) #5
  %4 = load ptr, ptr %2, align 8, !tbaa !7
  %5 = call i32 @lv_event_get_code(ptr noundef %4)
  store i32 %5, ptr %3, align 4, !tbaa !3
  %6 = load i32, ptr %3, align 4, !tbaa !3
  %7 = icmp eq i32 %6, 41
  br i1 %7, label %8, label %9

8:                                                ; preds = %1
  call void @lv_style_reset(ptr noundef @style_text_muted)
  call void @lv_style_reset(ptr noundef @style_title)
  call void @lv_style_reset(ptr noundef @style_icon)
  call void @lv_style_reset(ptr noundef @style_bullet)
  br label %9

9:                                                ; preds = %8, %1
  call void @llvm.lifetime.end.p0(i64 4, ptr %3) #5
  ret void
}