; Function Attrs: nounwind uwtable
define internal void @tabview_delete_event_cb(ptr noundef %0) #0 {
  %2 = tail call i32 @lv_event_get_code(ptr noundef %0) #5
  %3 = icmp eq i32 %2, 41
  br i1 %3, label %4, label %5

4:                                                ; preds = %1
  tail call void @lv_style_reset(ptr noundef nonnull @style_text_muted) #5
  tail call void @lv_style_reset(ptr noundef nonnull @style_title) #5
  tail call void @lv_style_reset(ptr noundef nonnull @style_icon) #5
  tail call void @lv_style_reset(ptr noundef nonnull @style_bullet) #5
  br label %5

5:                                                ; preds = %4, %1
  ret void
}